; Function Attrs: mustprogress uwtable
define hidden noundef nonnull align 8 dereferenceable(8) ptr @_ZNK3sls12arith_plugin7displayERSo(ptr noundef nonnull readonly align 8 captures(none) dereferenceable(64) %0, ptr noundef nonnull align 8 dereferenceable(8) %1) unnamed_addr #3 align 2 {
  %3 = getelementptr inbounds nuw i8, ptr %0, i64 32
  %4 = load ptr, ptr %3, align 8, !tbaa !48
  %.not = icmp eq ptr %4, null
  %5 = getelementptr inbounds nuw i8, ptr %0, i64 40
  %6 = load ptr, ptr %5, align 8
  %.sink7 = select i1 %.not, ptr %6, ptr %4
  %7 = load ptr, ptr %.sink7, align 8, !tbaa !3
  %8 = getelementptr inbounds nuw i8, ptr %7, i64 128
  %9 = load ptr, ptr %8, align 8
  %10 = tail call noundef nonnull align 8 dereferenceable(8) ptr %9(ptr noundef nonnull align 8 dereferenceable(672) %.sink7, ptr noundef nonnull align 8 dereferenceable(8) %1)
  ret ptr %10
}